; ModuleID = '56/1054.c'
source_filename = "56/1054.c"
target datalayout = "e-m:e-p270:32:32-p271:32:32-p272:64:64-i64:64-f80:128-n8:16:32:64-S128"
target triple = "x86_64-pc-linux-gnu"

@.str = private unnamed_addr constant [3 x i8] c"%d\00", align 1
@.str.1 = private unnamed_addr constant [5 x i8] c"%d%d\00", align 1
@.str.2 = private unnamed_addr constant [7 x i8] c"%d%d%d\00", align 1
@.str.3 = private unnamed_addr constant [9 x i8] c"%d%d%d%d\00", align 1
@.str.4 = private unnamed_addr constant [11 x i8] c"%d%d%d%d%d\00", align 1

; Function Attrs: noinline nounwind uwtable
define dso_local i32 @main() #0 {
  %1 = alloca i32, align 4
  %2 = alloca i32, align 4
  %3 = alloca i32, align 4
  %4 = alloca i32, align 4
  %5 = alloca i32, align 4
  %6 = alloca i32, align 4
  %7 = alloca i32, align 4
  store i32 0, i32* %1, align 4
  %8 = call i32 (i8*, ...) @__isoc99_scanf(i8* getelementptr inbounds ([3 x i8], [3 x i8]* @.str, i64 0, i64 0), i32* %2)
  %9 = load i32, i32* %2, align 4
  %10 = srem i32 %9, 10
  store i32 %10, i32* %3, align 4
  %11 = load i32, i32* %2, align 4
  %12 = load i32, i32* %3, align 4
  %13 = sub nsw i32 %11, %12
  %14 = srem i32 %13, 100
  %15 = sdiv i32 %14, 10
  store i32 %15, i32* %4, align 4
  %16 = load i32, i32* %2, align 4
  %17 = load i32, i32* %4, align 4
  %18 = mul nsw i32 10, %17
  %19 = sub nsw i32 %16, %18
  %20 = load i32, i32* %3, align 4
  %21 = sub nsw i32 %19, %20
  %22 = srem i32 %21, 1000
  %23 = sdiv i32 %22, 100
  store i32 %23, i32* %5, align 4
  %24 = load i32, i32* %5, align 4
  %25 = icmp eq i32 %24, 0
  br i1 %25, label %26, label %30

26:                                               ; preds = %0
  %27 = load i32, i32* %3, align 4
  %28 = load i32, i32* %4, align 4
  %29 = call i32 (i8*, ...) @printf(i8* getelementptr inbounds ([5 x i8], [5 x i8]* @.str.1, i64 0, i64 0), i32 %27, i32 %28)
  br label %69

30:                                               ; preds = %0
  %31 = load i32, i32* %2, align 4
  %32 = load i32, i32* %5, align 4
  %33 = mul nsw i32 100, %32
  %34 = sub nsw i32 %31, %33
  %35 = load i32, i32* %4, align 4
  %36 = mul nsw i32 10, %35
  %37 = sub nsw i32 %34, %36
  %38 = load i32, i32* %3, align 4
  %39 = sub nsw i32 %37, %38
  %40 = srem i32 %39, 10000
  %41 = sdiv i32 %40, 1000
  store i32 %41, i32* %6, align 4
  %42 = load i32, i32* %6, align 4
  %43 = icmp eq i32 %42, 0
  br i1 %43, label %44, label %49

44:                                               ; preds = %30
  %45 = load i32, i32* %3, align 4
  %46 = load i32, i32* %4, align 4
  %47 = load i32, i32* %5, align 4
  %48 = call i32 (i8*, ...) @printf(i8* getelementptr inbounds ([7 x i8], [7 x i8]* @.str.2, i64 0, i64 0), i32 %45, i32 %46, i32 %47)
  br label %68

49:                                               ; preds = %30
  %50 = load i32, i32* %2, align 4
  %51 = sdiv i32 %50, 10000
  store i32 %51, i32* %7, align 4
  %52 = load i32, i32* %7, align 4
  %53 = icmp eq i32 %52, 0
  br i1 %53, label %54, label %60

54:                                               ; preds = %49
  %55 = load i32, i32* %3, align 4
  %56 = load i32, i32* %4, align 4
  %57 = load i32, i32* %5, align 4
  %58 = load i32, i32* %6, align 4
  %59 = call i32 (i8*, ...) @printf(i8* getelementptr inbounds ([9 x i8], [9 x i8]* @.str.3, i64 0, i64 0), i32 %55, i32 %56, i32 %57, i32 %58)
  br label %67

60:                                               ; preds = %49
  %61 = load i32, i32* %3, align 4
  %62 = load i32, i32* %4, align 4
  %63 = load i32, i32* %5, align 4
  %64 = load i32, i32* %6, align 4
  %65 = load i32, i32* %7, align 4
  %66 = call i32 (i8*, ...) @printf(i8* getelementptr inbounds ([11 x i8], [11 x i8]* @.str.4, i64 0, i64 0), i32 %61, i32 %62, i32 %63, i32 %64, i32 %65)
  br label %67

67:                                               ; preds = %60, %54
  br label %68

68:                                               ; preds = %67, %44
  br label %69

69:                                               ; preds = %68, %26
  ret i32 0
}

declare dso_local i32 @__isoc99_scanf(i8*, ...) #1

declare dso_local i32 @printf(i8*, ...) #1


!llvm.module.flags = !{!0}
!llvm.ident = !{!1}

!0 = !{i32 1, !"wchar_size", i32 4}
!1 = !{!"clang version 10.0.0-4ubuntu1 "}
